; Function Attrs: nofree norecurse nosync nounwind memory(argmem: readwrite) uwtable
define internal fastcc void @ge_add(ptr noundef nonnull captures(none) %0, ptr noundef nonnull readonly captures(none) %1, ptr noundef nonnull readonly captures(none) %2) unnamed_addr #4 {
  %4 = alloca [10 x i32], align 16
  call void @llvm.lifetime.start.p0(i64 40, ptr nonnull %4) #9
  %5 = getelementptr inbounds nuw i8, ptr %1, i64 40
  br label %6

6:                                                ; preds = %6, %3
  %indvars.iv.i = phi i64 [ 0, %3 ], [ %indvars.iv.next.i, %6 ]
  %7 = getelementptr inbounds nuw i32, ptr %5, i64 %indvars.iv.i
  %8 = load i32, ptr %7, align 4, !tbaa !9
  %9 = getelementptr inbounds nuw i32, ptr %1, i64 %indvars.iv.i
  %10 = load i32, ptr %9, align 4, !tbaa !9
  %11 = add nsw i32 %10, %8
  %12 = getelementptr inbounds nuw i32, ptr %0, i64 %indvars.iv.i
  store i32 %11, ptr %12, align 4, !tbaa !9
  %indvars.iv.next.i = add nuw nsw i64 %indvars.iv.i, 1
  %exitcond.not.i = icmp eq i64 %indvars.iv.next.i, 10
  br i1 %exitcond.not.i, label %fe_add.exit, label %6, !llvm.loop !14

fe_add.exit:                                      ; preds = %6
  %13 = getelementptr inbounds nuw i8, ptr %0, i64 40
  br label %14

14:                                               ; preds = %14, %fe_add.exit
  %indvars.iv.i30 = phi i64 [ 0, %fe_add.exit ], [ %indvars.iv.next.i31, %14 ]
  %15 = getelementptr inbounds nuw i32, ptr %5, i64 %indvars.iv.i30
  %16 = load i32, ptr %15, align 4, !tbaa !9
  %17 = getelementptr inbounds nuw i32, ptr %1, i64 %indvars.iv.i30
  %18 = load i32, ptr %17, align 4, !tbaa !9
  %19 = sub nsw i32 %16, %18
  %20 = getelementptr inbounds nuw i32, ptr %13, i64 %indvars.iv.i30
  store i32 %19, ptr %20, align 4, !tbaa !9
  %indvars.iv.next.i31 = add nuw nsw i64 %indvars.iv.i30, 1
  %exitcond.not.i32 = icmp eq i64 %indvars.iv.next.i31, 10
  br i1 %exitcond.not.i32, label %fe_sub.exit, label %14, !llvm.loop !13

fe_sub.exit:                                      ; preds = %14
  %21 = getelementptr inbounds nuw i8, ptr %0, i64 80
  tail call fastcc void @fe_mul(ptr noundef %21, ptr noundef nonnull %0, ptr noundef nonnull %2)
  %22 = getelementptr inbounds nuw i8, ptr %2, i64 40
  tail call fastcc void @fe_mul(ptr noundef %13, ptr noundef nonnull %13, ptr noundef nonnull %22)
  %23 = getelementptr inbounds nuw i8, ptr %0, i64 120
  %24 = getelementptr inbounds nuw i8, ptr %2, i64 120
  %25 = getelementptr inbounds nuw i8, ptr %1, i64 120
  tail call fastcc void @fe_mul(ptr noundef %23, ptr noundef nonnull %24, ptr noundef nonnull %25)
  %26 = getelementptr inbounds nuw i8, ptr %1, i64 80
  %27 = getelementptr inbounds nuw i8, ptr %2, i64 80
  tail call fastcc void @fe_mul(ptr noundef %0, ptr noundef nonnull %26, ptr noundef nonnull %27)
  br label %28

28:                                               ; preds = %28, %fe_sub.exit
  %indvars.iv.i33 = phi i64 [ 0, %fe_sub.exit ], [ %indvars.iv.next.i34, %28 ]
  %29 = getelementptr inbounds nuw i32, ptr %0, i64 %indvars.iv.i33
  %30 = load i32, ptr %29, align 4, !tbaa !9
  %31 = shl nsw i32 %30, 1
  %32 = getelementptr inbounds nuw i32, ptr %4, i64 %indvars.iv.i33
  store i32 %31, ptr %32, align 4, !tbaa !9
  %indvars.iv.next.i34 = add nuw nsw i64 %indvars.iv.i33, 1
  %exitcond.not.i35 = icmp eq i64 %indvars.iv.next.i34, 10
  br i1 %exitcond.not.i35, label %fe_add.exit36, label %28, !llvm.loop !14

fe_add.exit36:                                    ; preds = %28, %fe_add.exit36
  %indvars.iv.i37 = phi i64 [ %indvars.iv.next.i38, %fe_add.exit36 ], [ 0, %28 ]
  %33 = getelementptr inbounds nuw i32, ptr %21, i64 %indvars.iv.i37
  %34 = load i32, ptr %33, align 4, !tbaa !9
  %35 = getelementptr inbounds nuw i32, ptr %13, i64 %indvars.iv.i37
  %36 = load i32, ptr %35, align 4, !tbaa !9
  %37 = sub nsw i32 %34, %36
  %38 = getelementptr inbounds nuw i32, ptr %0, i64 %indvars.iv.i37
  store i32 %37, ptr %38, align 4, !tbaa !9
  %indvars.iv.next.i38 = add nuw nsw i64 %indvars.iv.i37, 1
  %exitcond.not.i39 = icmp eq i64 %indvars.iv.next.i38, 10
  br i1 %exitcond.not.i39, label %fe_sub.exit40, label %fe_add.exit36, !llvm.loop !13

fe_sub.exit40:                                    ; preds = %fe_add.exit36, %fe_sub.exit40
  %indvars.iv.i41 = phi i64 [ %indvars.iv.next.i42, %fe_sub.exit40 ], [ 0, %fe_add.exit36 ]
  %39 = getelementptr inbounds nuw i32, ptr %21, i64 %indvars.iv.i41
  %40 = load i32, ptr %39, align 4, !tbaa !9
  %41 = getelementptr inbounds nuw i32, ptr %13, i64 %indvars.iv.i41
  %42 = load i32, ptr %41, align 4, !tbaa !9
  %43 = add nsw i32 %42, %40
  store i32 %43, ptr %41, align 4, !tbaa !9
  %indvars.iv.next.i42 = add nuw nsw i64 %indvars.iv.i41, 1
  %exitcond.not.i43 = icmp eq i64 %indvars.iv.next.i42, 10
  br i1 %exitcond.not.i43, label %fe_add.exit44, label %fe_sub.exit40, !llvm.loop !14

fe_add.exit44:                                    ; preds = %fe_sub.exit40, %fe_add.exit44
  %indvars.iv.i45 = phi i64 [ %indvars.iv.next.i46, %fe_add.exit44 ], [ 0, %fe_sub.exit40 ]
  %44 = getelementptr inbounds nuw i32, ptr %4, i64 %indvars.iv.i45
  %45 = load i32, ptr %44, align 4, !tbaa !9
  %46 = getelementptr inbounds nuw i32, ptr %23, i64 %indvars.iv.i45
  %47 = load i32, ptr %46, align 4, !tbaa !9
  %48 = add nsw i32 %47, %45
  %49 = getelementptr inbounds nuw i32, ptr %21, i64 %indvars.iv.i45
  store i32 %48, ptr %49, align 4, !tbaa !9
  %indvars.iv.next.i46 = add nuw nsw i64 %indvars.iv.i45, 1
  %exitcond.not.i47 = icmp eq i64 %indvars.iv.next.i46, 10
  br i1 %exitcond.not.i47, label %fe_add.exit48, label %fe_add.exit44, !llvm.loop !14

fe_add.exit48:                                    ; preds = %fe_add.exit44, %fe_add.exit48
  %indvars.iv.i49 = phi i64 [ %indvars.iv.next.i50, %fe_add.exit48 ], [ 0, %fe_add.exit44 ]
  %50 = getelementptr inbounds nuw i32, ptr %4, i64 %indvars.iv.i49
  %51 = load i32, ptr %50, align 4, !tbaa !9
  %52 = getelementptr inbounds nuw i32, ptr %23, i64 %indvars.iv.i49
  %53 = load i32, ptr %52, align 4, !tbaa !9
  %54 = sub nsw i32 %51, %53
  store i32 %54, ptr %52, align 4, !tbaa !9
  %indvars.iv.next.i50 = add nuw nsw i64 %indvars.iv.i49, 1
  %exitcond.not.i51 = icmp eq i64 %indvars.iv.next.i50, 10
  br i1 %exitcond.not.i51, label %fe_sub.exit52, label %fe_add.exit48, !llvm.loop !13

fe_sub.exit52:                                    ; preds = %fe_add.exit48
  call void @llvm.lifetime.end.p0(i64 40, ptr nonnull %4) #9
  ret void
}